target datalayout = "e-m:e-p270:32:32-p271:32:32-p272:64:64-i64:64-i128:128-f80:128-n8:16:32:64-S128"
target triple = "x86_64-pc-linux-gnu"

%struct.QemuMutex = type { %union.pthread_mutex_t, i8 }
%union.pthread_mutex_t = type { %struct.__pthread_mutex_s }
%struct.__pthread_mutex_s = type { i32, i32, i32, i32, i32, i16, i16, %struct.__pthread_internal_list }
%struct.__pthread_internal_list = type { ptr, ptr }
%struct.QemuLockable = type { ptr, ptr, ptr }

@.str.1 = private unnamed_addr constant [19 x i8] c"../qemu/blockdev.c\00", align 1
@job_mutex = external global %struct.QemuMutex, align 8
@.str.247 = private unnamed_addr constant [11 x i8] c"id != NULL\00", align 1
@__PRETTY_FUNCTION__.find_block_job_locked = private unnamed_addr constant [56 x i8] c"BlockJob *find_block_job_locked(const char *, Error **)\00", align 1
@__func__.find_block_job_locked = private unnamed_addr constant [22 x i8] c"find_block_job_locked\00", align 1
@.str.248 = private unnamed_addr constant [25 x i8] c"Block job '%s' not found\00", align 1

; Function Attrs: inlinehint nounwind sspstrong uwtable
define internal void @qemu_lockable_unlock(ptr noundef %0) #5 {
  %2 = alloca ptr, align 8
  store ptr %0, ptr %2, align 8
  %3 = load ptr, ptr %2, align 8
  %4 = getelementptr inbounds nuw %struct.QemuLockable, ptr %3, i32 0, i32 2
  %5 = load ptr, ptr %4, align 8
  %6 = load ptr, ptr %2, align 8
  %7 = getelementptr inbounds nuw %struct.QemuLockable, ptr %6, i32 0, i32 0
  %8 = load ptr, ptr %7, align 8
  call void %5(ptr noundef %8)
  ret void
}

; Function Attrs: inlinehint nounwind sspstrong uwtable
define internal void @qemu_lockable_auto_unlock(ptr noundef %0) #5 {
  %2 = alloca ptr, align 8
  store ptr %0, ptr %2, align 8
  %3 = load ptr, ptr %2, align 8
  %4 = icmp ne ptr %3, null
  br i1 %4, label %5, label %7

5:                                                ; preds = %1
  %6 = load ptr, ptr %2, align 8
  call void @qemu_lockable_unlock(ptr noundef %6)
  br label %7

7:                                                ; preds = %5, %1
  ret void
}

; Function Attrs: inlinehint nounwind sspstrong uwtable
define internal void @glib_autoptr_clear_QemuLockable(ptr noundef %0) #5 {
  %2 = alloca ptr, align 8
  store ptr %0, ptr %2, align 8
  %3 = load ptr, ptr %2, align 8
  %4 = icmp ne ptr %3, null
  br i1 %4, label %5, label %7

5:                                                ; preds = %1
  %6 = load ptr, ptr %2, align 8
  call void @qemu_lockable_auto_unlock(ptr noundef %6)
  br label %7

7:                                                ; preds = %5, %1
  ret void
}

; Function Attrs: inlinehint nounwind sspstrong uwtable
define internal void @qemu_lockable_lock(ptr noundef %0) #5 {
  %2 = alloca ptr, align 8
  store ptr %0, ptr %2, align 8
  %3 = load ptr, ptr %2, align 8
  %4 = getelementptr inbounds nuw %struct.QemuLockable, ptr %3, i32 0, i32 1
  %5 = load ptr, ptr %4, align 8
  %6 = load ptr, ptr %2, align 8
  %7 = getelementptr inbounds nuw %struct.QemuLockable, ptr %6, i32 0, i32 0
  %8 = load ptr, ptr %7, align 8
  call void %5(ptr noundef %8)
  ret void
}

; Function Attrs: inlinehint nounwind sspstrong uwtable
define internal void @glib_autoptr_cleanup_QemuLockable(ptr noundef %0) #5 {
  %2 = alloca ptr, align 8
  store ptr %0, ptr %2, align 8
  %3 = load ptr, ptr %2, align 8
  %4 = load ptr, ptr %3, align 8
  call void @glib_autoptr_clear_QemuLockable(ptr noundef %4)
  ret void
}

; Function Attrs: nounwind sspstrong uwtable
define internal ptr @find_block_job_locked(ptr noundef %0, ptr noundef %1) #0 {
  %3 = alloca ptr, align 8
  %4 = alloca ptr, align 8
  %5 = alloca ptr, align 8
  %6 = alloca ptr, align 8
  %7 = alloca i32, align 4
  store ptr %0, ptr %4, align 8
  store ptr %1, ptr %5, align 8
  call void @llvm.lifetime.start.p0(i64 8, ptr %6) #16
  store ptr null, ptr %6, align 8, !annotation !4
  %8 = load ptr, ptr %4, align 8
  %9 = icmp ne ptr %8, null
  br i1 %9, label %10, label %11

10:                                               ; preds = %2
  br label %12

11:                                               ; preds = %2
  call void @__assert_fail(ptr noundef @.str.247, ptr noundef @.str.1, i32 noundef 3137, ptr noundef @__PRETTY_FUNCTION__.find_block_job_locked) #15
  unreachable

12:                                               ; preds = %10
  %13 = load ptr, ptr %4, align 8
  %14 = call ptr @block_job_get_locked(ptr noundef %13)
  store ptr %14, ptr %6, align 8
  %15 = load ptr, ptr %6, align 8
  %16 = icmp ne ptr %15, null
  br i1 %16, label %20, label %17

17:                                               ; preds = %12
  %18 = load ptr, ptr %5, align 8
  %19 = load ptr, ptr %4, align 8
  call void (ptr, ptr, i32, ptr, i32, ptr, ...) @error_set_internal(ptr noundef %18, ptr noundef @.str.1, i32 noundef 3143, ptr noundef @__func__.find_block_job_locked, i32 noundef 2, ptr noundef @.str.248, ptr noundef %19)
  store ptr null, ptr %3, align 8
  store i32 1, ptr %7, align 4
  br label %22

20:                                               ; preds = %12
  %21 = load ptr, ptr %6, align 8
  store ptr %21, ptr %3, align 8
  store i32 1, ptr %7, align 4
  br label %22

22:                                               ; preds = %20, %17
  call void @llvm.lifetime.end.p0(i64 8, ptr %6) #16
  %23 = load ptr, ptr %3, align 8
  ret ptr %23
}

; Function Attrs: inlinehint nounwind sspstrong uwtable
define internal ptr @qemu_lockable_auto_lock(ptr noundef %0) #5 {
  %2 = alloca ptr, align 8
  store ptr %0, ptr %2, align 8
  %3 = load ptr, ptr %2, align 8
  call void @qemu_lockable_lock(ptr noundef %3)
  %4 = load ptr, ptr %2, align 8
  ret ptr %4
}

; Function Attrs: alwaysinline nounwind sspstrong uwtable
define internal ptr @qemu_make_lockable(ptr noundef %0, ptr noundef %1) #6 {
  %3 = alloca ptr, align 8
  %4 = alloca ptr, align 8
  store ptr %0, ptr %3, align 8
  store ptr %1, ptr %4, align 8
  %5 = load ptr, ptr %3, align 8
  %6 = icmp ne ptr %5, null
  br i1 %6, label %7, label %9

7:                                                ; preds = %2
  %8 = load ptr, ptr %4, align 8
  br label %10

9:                                                ; preds = %2
  br label %10

10:                                               ; preds = %9, %7
  %11 = phi ptr [ %8, %7 ], [ null, %9 ]
  ret ptr %11
}

; Function Attrs: nounwind sspstrong uwtable
define dso_local void @qmp_block_job_set_speed(ptr noundef %0, i64 noundef %1, ptr noundef %2) #0 {
  %4 = alloca ptr, align 8
  %5 = alloca i64, align 8
  %6 = alloca ptr, align 8
  %7 = alloca ptr, align 8
  %8 = alloca ptr, align 8
  %9 = alloca %struct.QemuLockable, align 8
  %10 = alloca i32, align 4
  store ptr %0, ptr %4, align 8
  store i64 %1, ptr %5, align 8
  store ptr %2, ptr %6, align 8
  call void @llvm.lifetime.start.p0(i64 8, ptr %7) #16
  store ptr null, ptr %7, align 8, !annotation !4
  call void @llvm.lifetime.start.p0(i64 8, ptr %8) #16
  %11 = getelementptr inbounds nuw %struct.QemuLockable, ptr %9, i32 0, i32 0
  store ptr @job_mutex, ptr %11, align 8
  %12 = getelementptr inbounds nuw %struct.QemuLockable, ptr %9, i32 0, i32 1
  store ptr @qemu_lockable_mutex_lock, ptr %12, align 8
  %13 = getelementptr inbounds nuw %struct.QemuLockable, ptr %9, i32 0, i32 2
  store ptr @qemu_lockable_mutex_unlock, ptr %13, align 8
  %14 = call ptr @qemu_make_lockable(ptr noundef @job_mutex, ptr noundef %9)
  %15 = call ptr @qemu_lockable_auto_lock(ptr noundef %14)
  store ptr %15, ptr %8, align 8
  %16 = load ptr, ptr %4, align 8
  %17 = load ptr, ptr %6, align 8
  %18 = call ptr @find_block_job_locked(ptr noundef %16, ptr noundef %17)
  store ptr %18, ptr %7, align 8
  %19 = load ptr, ptr %7, align 8
  %20 = icmp ne ptr %19, null
  br i1 %20, label %22, label %21

21:                                               ; preds = %3
  store i32 1, ptr %10, align 4
  br label %27

22:                                               ; preds = %3
  %23 = load ptr, ptr %7, align 8
  %24 = load i64, ptr %5, align 8
  %25 = load ptr, ptr %6, align 8
  %26 = call zeroext i1 @block_job_set_speed_locked(ptr noundef %23, i64 noundef %24, ptr noundef %25)
  store i32 0, ptr %10, align 4
  br label %27

27:                                               ; preds = %22, %21
  call void @glib_autoptr_cleanup_QemuLockable(ptr noundef %8)
  call void @llvm.lifetime.end.p0(i64 8, ptr %8) #16
  call void @llvm.lifetime.end.p0(i64 8, ptr %7) #16
  %28 = load i32, ptr %10, align 4
  switch i32 %28, label %30 [
    i32 0, label %29
    i32 1, label %29
  ]

29:                                               ; preds = %27, %27
  ret void

30:                                               ; preds = %27
  unreachable
}